target datalayout = "e-m:e-p270:32:32-p271:32:32-p272:64:64-i64:64-i128:128-f80:128-n8:16:32:64-S128"
target triple = "x86_64-pc-linux-gnu"

%struct.opj_j2k = type { i32, %union.anon, ptr, ptr, %struct.opj_cp, ptr, ptr, ptr, i32, ptr, ptr, i32, i32, i32 }
%union.anon = type { %struct.opj_j2k_dec }
%struct.opj_j2k_dec = type { i32, ptr, ptr, i32, i32, i32, i32, i32, i32, i32, i64, i32, i32, ptr, %struct.opj_j2k_tlm_info, i32, i32, ptr, i8 }
%struct.opj_j2k_tlm_info = type { i32, ptr, i32 }
%struct.opj_cp = type { i16, i32, i32, i32, i32, ptr, i32, i32, i32, ptr, ptr, i32, i32, ptr, ptr, ptr, i32, i32, i32, ptr, %union.anon.0, i32, i8 }
%union.anon.0 = type { %struct.opj_encoding_param }
%struct.opj_encoding_param = type { i32, i32, ptr, i8, i32, i8 }
%struct.opj_j2k_enc = type { i32, i32, i32, i32, i64, ptr, ptr, i32, ptr, i32, ptr, i32, i32, i32, i32 }
%struct.opj_poc = type { i32, i32, i32, i32, i32, i32, i32, i32, i32, i32, [5 x i8], i32, i32, i32, i32, i32, i32, i32, i32, i32, i32, i32, i32, i32, i32, i32, i32, i32, i32, i32, i32, i32, i32, i32, i32, i32 }
%struct.opj_tcp = type { i32, i32, i32, i32, i32, [100 x float], i32, [32 x %struct.opj_poc], i32, ptr, ptr, ptr, i32, i32, [100 x float], ptr, i32, i32, ptr, i32, ptr, ptr, ptr, ptr, i32, i32, ptr, i32, i32, i8 }
%struct.opj_tccp = type { i32, i32, i32, i32, i32, i32, i32, [97 x %struct.opj_stepsize], i32, i32, [33 x i32], [33 x i32], i32 }
%struct.opj_stepsize = type { i32, i32 }

@.str.91 = private unnamed_addr constant [5 x i8] c"PLT=\00", align 1
@.str.92 = private unnamed_addr constant [8 x i8] c"PLT=YES\00", align 1
@.str.93 = private unnamed_addr constant [7 x i8] c"PLT=NO\00", align 1
@.str.94 = private unnamed_addr constant [31 x i8] c"Invalid value for option: %s.\0A\00", align 1
@.str.95 = private unnamed_addr constant [5 x i8] c"TLM=\00", align 1
@.str.96 = private unnamed_addr constant [8 x i8] c"TLM=YES\00", align 1
@.str.97 = private unnamed_addr constant [7 x i8] c"TLM=NO\00", align 1
@.str.98 = private unnamed_addr constant [12 x i8] c"GUARD_BITS=\00", align 1
@.str.99 = private unnamed_addr constant [50 x i8] c"Invalid value for option: %s. Should be in [0,7]\0A\00", align 1
@.str.100 = private unnamed_addr constant [21 x i8] c"Invalid option: %s.\0A\00", align 1

; Function Attrs: inlinehint nounwind willreturn memory(read) uwtable
define available_externally i32 @atoi(ptr noundef nonnull %0) #9 {
  %2 = alloca ptr, align 8
  store ptr %0, ptr %2, align 8, !tbaa !44
  %3 = load ptr, ptr %2, align 8, !tbaa !44
  %4 = call i64 @strtol(ptr noundef %3, ptr noundef null, i32 noundef 10) #10
  %5 = trunc i64 %4 to i32
  ret i32 %5
}

; Function Attrs: nounwind uwtable
define hidden i32 @opj_j2k_encoder_set_extra_options(ptr noundef %0, ptr noundef %1, ptr noundef %2) #0 {
  %4 = alloca i32, align 4
  %5 = alloca ptr, align 8
  %6 = alloca ptr, align 8
  %7 = alloca ptr, align 8
  %8 = alloca ptr, align 8
  %9 = alloca i32, align 4
  %10 = alloca i32, align 4
  %11 = alloca ptr, align 8
  %12 = alloca i32, align 4
  %13 = alloca i32, align 4
  %14 = alloca ptr, align 8
  %15 = alloca ptr, align 8
  store ptr %0, ptr %5, align 8, !tbaa !14
  store ptr %1, ptr %6, align 8, !tbaa !285
  store ptr %2, ptr %7, align 8, !tbaa !48
  call void @llvm.lifetime.start.p0(i64 8, ptr %8) #10
  %16 = load ptr, ptr %6, align 8, !tbaa !285
  %17 = icmp eq ptr %16, null
  br i1 %17, label %18, label %19

18:                                               ; preds = %3
  store i32 1, ptr %4, align 4
  store i32 1, ptr %9, align 4
  br label %165

19:                                               ; preds = %3
  %20 = load ptr, ptr %6, align 8, !tbaa !285
  store ptr %20, ptr %8, align 8, !tbaa !285
  br label %21

21:                                               ; preds = %161, %19
  %22 = load ptr, ptr %8, align 8, !tbaa !285
  %23 = load ptr, ptr %22, align 8, !tbaa !44
  %24 = icmp ne ptr %23, null
  br i1 %24, label %25, label %164

25:                                               ; preds = %21
  %26 = load ptr, ptr %8, align 8, !tbaa !285
  %27 = load ptr, ptr %26, align 8, !tbaa !44
  %28 = call i32 @strncmp(ptr noundef %27, ptr noundef @.str.91, i64 noundef 4) #11
  %29 = icmp eq i32 %28, 0
  br i1 %29, label %30, label %55

30:                                               ; preds = %25
  %31 = load ptr, ptr %8, align 8, !tbaa !285
  %32 = load ptr, ptr %31, align 8, !tbaa !44
  %33 = call i32 @strcmp(ptr noundef %32, ptr noundef @.str.92) #11
  %34 = icmp eq i32 %33, 0
  br i1 %34, label %35, label %39

35:                                               ; preds = %30
  %36 = load ptr, ptr %5, align 8, !tbaa !14
  %37 = getelementptr inbounds nuw %struct.opj_j2k, ptr %36, i32 0, i32 1
  %38 = getelementptr inbounds nuw %struct.opj_j2k_enc, ptr %37, i32 0, i32 12
  store i32 1, ptr %38, align 4, !tbaa !20
  br label %54

39:                                               ; preds = %30
  %40 = load ptr, ptr %8, align 8, !tbaa !285
  %41 = load ptr, ptr %40, align 8, !tbaa !44
  %42 = call i32 @strcmp(ptr noundef %41, ptr noundef @.str.93) #11
  %43 = icmp eq i32 %42, 0
  br i1 %43, label %44, label %48

44:                                               ; preds = %39
  %45 = load ptr, ptr %5, align 8, !tbaa !14
  %46 = getelementptr inbounds nuw %struct.opj_j2k, ptr %45, i32 0, i32 1
  %47 = getelementptr inbounds nuw %struct.opj_j2k_enc, ptr %46, i32 0, i32 12
  store i32 0, ptr %47, align 4, !tbaa !20
  br label %53

48:                                               ; preds = %39
  %49 = load ptr, ptr %7, align 8, !tbaa !48
  %50 = load ptr, ptr %8, align 8, !tbaa !285
  %51 = load ptr, ptr %50, align 8, !tbaa !44
  %52 = call i32 (ptr, i32, ptr, ...) @opj_event_msg(ptr noundef %49, i32 noundef 1, ptr noundef @.str.94, ptr noundef %51)
  store i32 0, ptr %4, align 4
  store i32 1, ptr %9, align 4
  br label %165

53:                                               ; preds = %44
  br label %54

54:                                               ; preds = %53, %35
  br label %160

55:                                               ; preds = %25
  %56 = load ptr, ptr %8, align 8, !tbaa !285
  %57 = load ptr, ptr %56, align 8, !tbaa !44
  %58 = call i32 @strncmp(ptr noundef %57, ptr noundef @.str.95, i64 noundef 4) #11
  %59 = icmp eq i32 %58, 0
  br i1 %59, label %60, label %85

60:                                               ; preds = %55
  %61 = load ptr, ptr %8, align 8, !tbaa !285
  %62 = load ptr, ptr %61, align 8, !tbaa !44
  %63 = call i32 @strcmp(ptr noundef %62, ptr noundef @.str.96) #11
  %64 = icmp eq i32 %63, 0
  br i1 %64, label %65, label %69

65:                                               ; preds = %60
  %66 = load ptr, ptr %5, align 8, !tbaa !14
  %67 = getelementptr inbounds nuw %struct.opj_j2k, ptr %66, i32 0, i32 1
  %68 = getelementptr inbounds nuw %struct.opj_j2k_enc, ptr %67, i32 0, i32 2
  store i32 1, ptr %68, align 8, !tbaa !20
  br label %84

69:                                               ; preds = %60
  %70 = load ptr, ptr %8, align 8, !tbaa !285
  %71 = load ptr, ptr %70, align 8, !tbaa !44
  %72 = call i32 @strcmp(ptr noundef %71, ptr noundef @.str.97) #11
  %73 = icmp eq i32 %72, 0
  br i1 %73, label %74, label %78

74:                                               ; preds = %69
  %75 = load ptr, ptr %5, align 8, !tbaa !14
  %76 = getelementptr inbounds nuw %struct.opj_j2k, ptr %75, i32 0, i32 1
  %77 = getelementptr inbounds nuw %struct.opj_j2k_enc, ptr %76, i32 0, i32 2
  store i32 0, ptr %77, align 8, !tbaa !20
  br label %83

78:                                               ; preds = %69
  %79 = load ptr, ptr %7, align 8, !tbaa !48
  %80 = load ptr, ptr %8, align 8, !tbaa !285
  %81 = load ptr, ptr %80, align 8, !tbaa !44
  %82 = call i32 (ptr, i32, ptr, ...) @opj_event_msg(ptr noundef %79, i32 noundef 1, ptr noundef @.str.94, ptr noundef %81)
  store i32 0, ptr %4, align 4
  store i32 1, ptr %9, align 4
  br label %165

83:                                               ; preds = %74
  br label %84

84:                                               ; preds = %83, %65
  br label %159

85:                                               ; preds = %55
  %86 = load ptr, ptr %8, align 8, !tbaa !285
  %87 = load ptr, ptr %86, align 8, !tbaa !44
  %88 = call i32 @strncmp(ptr noundef %87, ptr noundef @.str.98, i64 noundef 11) #11
  %89 = icmp eq i32 %88, 0
  br i1 %89, label %90, label %153

90:                                               ; preds = %85
  call void @llvm.lifetime.start.p0(i64 4, ptr %10) #10
  call void @llvm.lifetime.start.p0(i64 8, ptr %11) #10
  %91 = load ptr, ptr %5, align 8, !tbaa !14
  %92 = getelementptr inbounds nuw %struct.opj_j2k, ptr %91, i32 0, i32 4
  store ptr %92, ptr %11, align 8, !tbaa !50
  store ptr %92, ptr %11, align 8, !tbaa !50
  call void @llvm.lifetime.start.p0(i64 4, ptr %12) #10
  %93 = load ptr, ptr %8, align 8, !tbaa !285
  %94 = load ptr, ptr %93, align 8, !tbaa !44
  %95 = getelementptr inbounds nuw i8, ptr %94, i64 11
  %96 = call i32 @atoi(ptr noundef %95) #11
  store i32 %96, ptr %12, align 4, !tbaa !3
  %97 = load i32, ptr %12, align 4, !tbaa !3
  %98 = icmp slt i32 %97, 0
  br i1 %98, label %102, label %99

99:                                               ; preds = %90
  %100 = load i32, ptr %12, align 4, !tbaa !3
  %101 = icmp sgt i32 %100, 7
  br i1 %101, label %102, label %107

102:                                              ; preds = %99, %90
  %103 = load ptr, ptr %7, align 8, !tbaa !48
  %104 = load ptr, ptr %8, align 8, !tbaa !285
  %105 = load ptr, ptr %104, align 8, !tbaa !44
  %106 = call i32 (ptr, i32, ptr, ...) @opj_event_msg(ptr noundef %103, i32 noundef 1, ptr noundef @.str.99, ptr noundef %105)
  store i32 0, ptr %4, align 4
  store i32 1, ptr %9, align 4
  br label %150

107:                                              ; preds = %99
  store i32 0, ptr %10, align 4, !tbaa !3
  br label %108

108:                                              ; preds = %146, %107
  %109 = load i32, ptr %10, align 4, !tbaa !3
  %110 = load ptr, ptr %11, align 8, !tbaa !50
  %111 = getelementptr inbounds nuw %struct.opj_cp, ptr %110, i32 0, i32 6
  %112 = load i32, ptr %111, align 8, !tbaa !63
  %113 = load ptr, ptr %11, align 8, !tbaa !50
  %114 = getelementptr inbounds nuw %struct.opj_cp, ptr %113, i32 0, i32 7
  %115 = load i32, ptr %114, align 4, !tbaa !64
  %116 = mul i32 %112, %115
  %117 = icmp ult i32 %109, %116
  br i1 %117, label %118, label %149

118:                                              ; preds = %108
  call void @llvm.lifetime.start.p0(i64 4, ptr %13) #10
  call void @llvm.lifetime.start.p0(i64 8, ptr %14) #10
  %119 = load ptr, ptr %11, align 8, !tbaa !50
  %120 = getelementptr inbounds nuw %struct.opj_cp, ptr %119, i32 0, i32 19
  %121 = load ptr, ptr %120, align 8, !tbaa !102
  %122 = load i32, ptr %10, align 4, !tbaa !3
  %123 = zext i32 %122 to i64
  %124 = getelementptr inbounds nuw %struct.opj_tcp, ptr %121, i64 %123
  store ptr %124, ptr %14, align 8, !tbaa !103
  store i32 0, ptr %13, align 4, !tbaa !3
  br label %125

125:                                              ; preds = %142, %118
  %126 = load i32, ptr %13, align 4, !tbaa !3
  %127 = load ptr, ptr %5, align 8, !tbaa !14
  %128 = getelementptr inbounds nuw %struct.opj_j2k, ptr %127, i32 0, i32 1
  %129 = getelementptr inbounds nuw %struct.opj_j2k_enc, ptr %128, i32 0, i32 14
  %130 = load i32, ptr %129, align 4, !tbaa !20
  %131 = icmp ult i32 %126, %130
  br i1 %131, label %132, label %145

132:                                              ; preds = %125
  call void @llvm.lifetime.start.p0(i64 8, ptr %15) #10
  %133 = load ptr, ptr %14, align 8, !tbaa !103
  %134 = getelementptr inbounds nuw %struct.opj_tcp, ptr %133, i32 0, i32 15
  %135 = load ptr, ptr %134, align 8, !tbaa !131
  %136 = load i32, ptr %13, align 4, !tbaa !3
  %137 = zext i32 %136 to i64
  %138 = getelementptr inbounds nuw %struct.opj_tccp, ptr %135, i64 %137
  store ptr %138, ptr %15, align 8, !tbaa !138
  %139 = load i32, ptr %12, align 4, !tbaa !3
  %140 = load ptr, ptr %15, align 8, !tbaa !138
  %141 = getelementptr inbounds nuw %struct.opj_tccp, ptr %140, i32 0, i32 8
  store i32 %139, ptr %141, align 4, !tbaa !154
  call void @llvm.lifetime.end.p0(i64 8, ptr %15) #10
  br label %142

142:                                              ; preds = %132
  %143 = load i32, ptr %13, align 4, !tbaa !3
  %144 = add i32 %143, 1
  store i32 %144, ptr %13, align 4, !tbaa !3
  br label %125, !llvm.loop !372

145:                                              ; preds = %125
  call void @llvm.lifetime.end.p0(i64 8, ptr %14) #10
  call void @llvm.lifetime.end.p0(i64 4, ptr %13) #10
  br label %146

146:                                              ; preds = %145
  %147 = load i32, ptr %10, align 4, !tbaa !3
  %148 = add i32 %147, 1
  store i32 %148, ptr %10, align 4, !tbaa !3
  br label %108, !llvm.loop !373

149:                                              ; preds = %108
  store i32 0, ptr %9, align 4
  br label %150

150:                                              ; preds = %149, %102
  call void @llvm.lifetime.end.p0(i64 4, ptr %12) #10
  call void @llvm.lifetime.end.p0(i64 8, ptr %11) #10
  call void @llvm.lifetime.end.p0(i64 4, ptr %10) #10
  %151 = load i32, ptr %9, align 4
  switch i32 %151, label %165 [
    i32 0, label %152
  ]

152:                                              ; preds = %150
  br label %158

153:                                              ; preds = %85
  %154 = load ptr, ptr %7, align 8, !tbaa !48
  %155 = load ptr, ptr %8, align 8, !tbaa !285
  %156 = load ptr, ptr %155, align 8, !tbaa !44
  %157 = call i32 (ptr, i32, ptr, ...) @opj_event_msg(ptr noundef %154, i32 noundef 1, ptr noundef @.str.100, ptr noundef %156)
  store i32 0, ptr %4, align 4
  store i32 1, ptr %9, align 4
  br label %165

158:                                              ; preds = %152
  br label %159

159:                                              ; preds = %158, %84
  br label %160

160:                                              ; preds = %159, %54
  br label %161

161:                                              ; preds = %160
  %162 = load ptr, ptr %8, align 8, !tbaa !285
  %163 = getelementptr inbounds nuw ptr, ptr %162, i32 1
  store ptr %163, ptr %8, align 8, !tbaa !285
  br label %21, !llvm.loop !374

164:                                              ; preds = %21
  store i32 1, ptr %4, align 4
  store i32 1, ptr %9, align 4
  br label %165

165:                                              ; preds = %164, %153, %150, %78, %48, %18
  call void @llvm.lifetime.end.p0(i64 8, ptr %8) #10
  %166 = load i32, ptr %4, align 4
  ret i32 %166
}