; Function Attrs: nounwind uwtable
define hidden range(i32 0, 2) i32 @opj_j2k_encoder_set_extra_options(ptr noundef captures(none) %0, ptr noundef readonly %1, ptr noundef %2) local_unnamed_addr #3 {
  %4 = icmp eq ptr %1, null
  br i1 %4, label %.loopexit50, label %.preheader49

.preheader49:                                     ; preds = %3
  %5 = load ptr, ptr %1, align 8, !tbaa !233
  %.not58 = icmp eq ptr %5, null
  br i1 %.not58, label %.loopexit50, label %.lr.ph60

.lr.ph60:                                         ; preds = %.preheader49
  %6 = getelementptr inbounds nuw i8, ptr %0, i64 184
  %7 = getelementptr inbounds nuw i8, ptr %0, i64 188
  %8 = getelementptr inbounds nuw i8, ptr %0, i64 264
  %9 = getelementptr inbounds nuw i8, ptr %0, i64 92
  %10 = getelementptr inbounds nuw i8, ptr %0, i64 16
  %11 = getelementptr inbounds nuw i8, ptr %0, i64 84
  br label %12

12:                                               ; preds = %.lr.ph60, %.loopexit
  %13 = phi ptr [ %5, %.lr.ph60 ], [ %57, %.loopexit ]
  %.04259 = phi ptr [ %1, %.lr.ph60 ], [ %56, %.loopexit ]
  %14 = tail call i32 @strncmp(ptr noundef nonnull dereferenceable(1) %13, ptr noundef nonnull dereferenceable(5) @.str.91, i64 noundef 4) #22
  %15 = icmp eq i32 %14, 0
  br i1 %15, label %16, label %24

16:                                               ; preds = %12
  %17 = tail call i32 @strcmp(ptr noundef nonnull dereferenceable(1) %13, ptr noundef nonnull dereferenceable(8) @.str.92) #22
  %18 = icmp eq i32 %17, 0
  br i1 %18, label %19, label %20

19:                                               ; preds = %16
  store i32 1, ptr %11, align 4, !tbaa !12
  br label %.loopexit

20:                                               ; preds = %16
  %21 = tail call i32 @strcmp(ptr noundef nonnull dereferenceable(1) %13, ptr noundef nonnull dereferenceable(7) @.str.93) #22
  %22 = icmp eq i32 %21, 0
  br i1 %22, label %23, label %.loopexit50.sink.split

23:                                               ; preds = %20
  store i32 0, ptr %11, align 4, !tbaa !12
  br label %.loopexit

24:                                               ; preds = %12
  %25 = tail call i32 @strncmp(ptr noundef nonnull dereferenceable(1) %13, ptr noundef nonnull dereferenceable(5) @.str.95, i64 noundef 4) #22
  %26 = icmp eq i32 %25, 0
  br i1 %26, label %27, label %35

27:                                               ; preds = %24
  %28 = tail call i32 @strcmp(ptr noundef nonnull dereferenceable(1) %13, ptr noundef nonnull dereferenceable(8) @.str.96) #22
  %29 = icmp eq i32 %28, 0
  br i1 %29, label %30, label %31

30:                                               ; preds = %27
  store i32 1, ptr %10, align 8, !tbaa !12
  br label %.loopexit

31:                                               ; preds = %27
  %32 = tail call i32 @strcmp(ptr noundef nonnull dereferenceable(1) %13, ptr noundef nonnull dereferenceable(7) @.str.97) #22
  %33 = icmp eq i32 %32, 0
  br i1 %33, label %34, label %.loopexit50.sink.split

34:                                               ; preds = %31
  store i32 0, ptr %10, align 8, !tbaa !12
  br label %.loopexit

35:                                               ; preds = %24
  %36 = tail call i32 @strncmp(ptr noundef nonnull dereferenceable(1) %13, ptr noundef nonnull dereferenceable(12) @.str.98, i64 noundef 11) #22
  %37 = icmp eq i32 %36, 0
  br i1 %37, label %38, label %.loopexit50.sink.split

38:                                               ; preds = %35
  %39 = getelementptr inbounds nuw i8, ptr %13, i64 11
  %40 = tail call i64 @strtol(ptr noundef nonnull captures(none) %39, ptr noundef null, i32 noundef 10) #21
  %41 = trunc i64 %40 to i32
  %or.cond = icmp ult i32 %41, 8
  br i1 %or.cond, label %.preheader, label %.loopexit50.sink.split

.preheader:                                       ; preds = %38
  %42 = load i32, ptr %6, align 8, !tbaa !36
  %43 = load i32, ptr %7, align 4, !tbaa !35
  %44 = mul i32 %43, %42
  %.not61 = icmp eq i32 %44, 0
  br i1 %.not61, label %.loopexit, label %.lr.ph57

.lr.ph57:                                         ; preds = %.preheader
  %45 = load ptr, ptr %8, align 8, !tbaa !34
  %46 = load i32, ptr %9, align 4, !tbaa !12
  %.not62 = icmp eq i32 %46, 0
  br i1 %.not62, label %.loopexit, label %.lr.ph57.split.preheader

.lr.ph57.split.preheader:                         ; preds = %.lr.ph57
  %wide.trip.count = zext i32 %44 to i64
  br label %.lr.ph57.split

.lr.ph57.split:                                   ; preds = %.lr.ph57.split.preheader, %._crit_edge
  %47 = phi i32 [ 1, %.lr.ph57.split.preheader ], [ %55, %._crit_edge ]
  %indvars.iv70 = phi i64 [ 0, %.lr.ph57.split.preheader ], [ %indvars.iv.next71, %._crit_edge ]
  %.not63 = icmp eq i32 %47, 0
  br i1 %.not63, label %._crit_edge, label %.lr.ph

.lr.ph:                                           ; preds = %.lr.ph57.split
  %48 = getelementptr inbounds nuw %struct.opj_tcp, ptr %45, i64 %indvars.iv70, i32 15
  %49 = load ptr, ptr %48, align 8, !tbaa !120
  br label %50

50:                                               ; preds = %.lr.ph, %50
  %indvars.iv = phi i64 [ 0, %.lr.ph ], [ %indvars.iv.next, %50 ]
  %51 = getelementptr inbounds nuw %struct.opj_tccp, ptr %49, i64 %indvars.iv, i32 8
  store i32 %41, ptr %51, align 4, !tbaa !140
  %indvars.iv.next = add nuw nsw i64 %indvars.iv, 1
  %52 = load i32, ptr %9, align 4, !tbaa !12
  %53 = zext i32 %52 to i64
  %54 = icmp samesign ult i64 %indvars.iv.next, %53
  br i1 %54, label %50, label %._crit_edge, !llvm.loop !338

._crit_edge:                                      ; preds = %50, %.lr.ph57.split
  %55 = phi i32 [ 0, %.lr.ph57.split ], [ %52, %50 ]
  %indvars.iv.next71 = add nuw nsw i64 %indvars.iv70, 1
  %exitcond.not = icmp eq i64 %indvars.iv.next71, %wide.trip.count
  br i1 %exitcond.not, label %.loopexit, label %.lr.ph57.split, !llvm.loop !339

.loopexit:                                        ; preds = %._crit_edge, %.lr.ph57, %.preheader, %23, %19, %30, %34
  %56 = getelementptr inbounds nuw i8, ptr %.04259, i64 8
  %57 = load ptr, ptr %56, align 8, !tbaa !233
  %.not = icmp eq ptr %57, null
  br i1 %.not, label %.loopexit50, label %12, !llvm.loop !341

.loopexit50.sink.split:                           ; preds = %35, %38, %31, %20
  %.str.99.sink = phi ptr [ @.str.94, %20 ], [ @.str.94, %31 ], [ @.str.99, %38 ], [ @.str.100, %35 ]
  %58 = tail call i32 (ptr, i32, ptr, ...) @opj_event_msg(ptr noundef %2, i32 noundef 1, ptr noundef nonnull %.str.99.sink, ptr noundef nonnull %13) #21
  br label %.loopexit50

.loopexit50:                                      ; preds = %.loopexit, %.loopexit50.sink.split, %.preheader49, %3
  %.0 = phi i32 [ 1, %3 ], [ 1, %.preheader49 ], [ 0, %.loopexit50.sink.split ], [ 1, %.loopexit ]
  ret i32 %.0
}